Certificate:
    Data:
        Version: 3 (0x2)
        Serial Number: 3 (0x3)
        Signature Algorithm: sha256WithRSAEncryption
        Issuer: O=Example CA
        Validity
            Not Before: Nov 20 21:15:21 2024 GMT
            Not After : Nov 20 21:15:21 2037 GMT
        Subject: CN=John Smith
        Subject Public Key Info:
            Public Key Algorithm: rsaEncryption
                Public-Key: (2048 bit)
                Modulus:
                    00:d0:3e:17:22:d2:9b:ee:23:32:bb:cf:ee:2a:a1:
                    a0:6d:3d:80:df:65:7e:13:34:3f:eb:44:dc:74:90:
                    7f:8d:9e:c8:95:59:1f:1c:0e:9e:ce:92:cb:7d:6f:
                    02:5c:e7:e5:d7:37:2a:fd:d2:6c:6a:ef:39:9f:5f:
                    d3:76:25:bc:7f:dc:c0:7a:54:35:ab:3d:a1:77:26:
                    e9:c5:9f:29:98:23:7a:f0:20:f0:5f:b0:e4:07:7f:
                    77:c3:82:f1:4d:9b:93:03:0a:65:88:8c:73:e0:6b:
                    81:5f:91:50:0c:22:b1:84:ee:68:af:7e:57:c8:1b:
                    9a:04:7b:fc:48:4d:5e:66:dd:d9:fa:3b:18:73:81:
                    ee:c9:c5:ee:f1:01:c4:9a:8f:13:46:15:42:2a:f9:
                    d6:cc:23:81:06:2a:f2:53:4b:34:83:1a:bd:77:ac:
                    d6:dd:3a:f6:ce:f6:76:6f:5d:3f:a5:d6:6a:e4:f4:
                    40:9f:15:c9:b0:c4:48:8f:f9:bf:cb:44:a1:70:6a:
                    fc:ab:9b:94:63:6c:7d:7e:8b:0c:cd:ea:4f:84:b2:
                    a7:09:65:c6:4e:80:57:8d:97:59:91:52:b6:be:0f:
                    67:e1:51:f8:ba:e4:f3:7d:8f:44:22:a9:e7:57:08:
                    e0:2d:ce:20:11:83:b8:cb:65:8d:41:5b:56:f4:b1:
                    06:3d
                Exponent: 65537 (0x10001)
        X509v3 extensions:
            X509v3 Key Usage: 
                Digital Signature, Key Encipherment
            X509v3 Extended Key Usage: 
                TLS Web Client Authentication, E-mail Protection
            X509v3 Subject Key Identifier: 
                21:63:B7:F4:B2:30:E4:00:D8:74:3C:94:42:3D:2E:08:F8:01:66:01
            X509v3 Authority Key Identifier: 
                8D:05:22:3A:EF:F4:DE:43:C8:EF:6C:7C:58:8A:15:B9:83:2D:50:D4
    Signature Algorithm: sha256WithRSAEncryption
    Signature Value:
        22:7f:f9:65:ef:22:21:f9:76:ad:99:bd:ae:d6:e7:c1:cb:a7:
        28:9e:34:aa:1e:c6:da:c4:59:f9:14:f4:ee:92:5c:97:f9:13:
        b5:9b:ce:4f:89:9b:8f:25:21:0b:2b:b2:5f:d0:65:8e:e0:18:
        1c:c8:5e:ae:df:02:88:98:ec:67:c6:c6:58:39:be:f7:4d:be:
        7f:a2:7d:e8:e8:39:b7:44:1d:17:7c:2c:64:ad:ab:cc:b1:bd:
        69:6b:5a:36:7d:bf:8e:8e:be:78:96:5d:82:27:15:1b:a4:55:
        a2:79:8c:c3:b5:00:37:25:9e:84:7a:9f:6c:98:50:07:71:1b:
        ac:4c:aa:b9:17:b9:d1:92:83:c4:48:14:97:31:0c:8a:a3:1d:
        8c:a9:90:75:b1:52:70:46:d6:42:09:1d:b3:8b:f5:41:26:23:
        82:77:51:04:18:32:49:f7:52:8a:16:d4:bb:8c:3c:9c:5a:a4:
        98:c3:dd:77:14:0e:f6:f7:6b:08:4a:7c:d9:e1:d5:bc:cc:2c:
        77:23:94:8c:79:a5:7a:94:66:04:3f:11:37:cd:db:9d:f1:6f:
        84:b8:c3:1c:c5:4f:97:b1:6f:ef:fd:f5:93:8f:06:b1:cf:5c:
        92:52:a4:f6:89:ac:13:3e:a8:13:62:39:b5:a3:c5:7e:4e:d0:
        e8:54:f8:5a
-----BEGIN CERTIFICATE-----
MIIDEzCCAfugAwIBAgIBAzANBgkqhkiG9w0BAQsFADAVMRMwEQYDVQQKDApFeGFt
cGxlIENBMB4XDTI0MTEyMDIxMTUyMVoXDTM3MTEyMDIxMTUyMVowFTETMBEGA1UE
AwwKSm9obiBTbWl0aDCCASIwDQYJKoZIhvcNAQEBBQADggEPADCCAQoCggEBANA+
FyLSm+4jMrvP7iqhoG09gN9lfhM0P+tE3HSQf42eyJVZHxwOns6Sy31vAlzn5dc3
Kv3SbGrvOZ9f03YlvH/cwHpUNas9oXcm6cWfKZgjevAg8F+w5Ad/d8OC8U2bkwMK
ZYiMc+BrgV+RUAwisYTuaK9+V8gbmgR7/EhNXmbd2fo7GHOB7snF7vEBxJqPE0YV
Qir51swjgQYq8lNLNIMavXes1t069s72dm9dP6XWauT0QJ8VybDESI/5v8tEoXBq
/KublGNsfX6LDM3qT4Sypwllxk6AV42XWZFStr4PZ+FR+Lrk832PRCKp51cI4C3O
IBGDuMtljUFbVvSxBj0CAwEAAaNuMGwwCwYDVR0PBAQDAgWgMB0GA1UdJQQWMBQG
CCsGAQUFBwMCBggrBgEFBQcDBDAdBgNVHQ4EFgQUIWO39LIw5ADYdDyUQj0uCPgB
ZgEwHwYDVR0jBBgwFoAUjQUiOu/03kPI72x8WIoVuYMtUNQwDQYJKoZIhvcNAQEL
BQADggEBACJ/+WXvIiH5dq2Zva7W58HLpyieNKoextrEWfkU9O6SXJf5E7Wbzk+J
m48lIQsrsl/QZY7gGBzIXq7fAoiY7GfGxlg5vvdNvn+ifejoObdEHRd8LGStq8yx
vWlrWjZ9v46OvniWXYInFRukVaJ5jMO1ADclnoR6n2yYUAdxG6xMqrkXudGSg8RI
FJcxDIqjHYypkHWxUnBG1kIJHbOL9UEmI4J3UQQYMkn3UooW1LuMPJxapJjD3XcU
Dvb3awhKfNnh1bzMLHcjlIx5pXqUZgQ/ETfN253xb4S4wxzFT5exb+/99ZOPBrHP
XJJSpPaJrBM+qBNiObWjxX5O0OhU+Fo=
-----END CERTIFICATE-----
