Certificate:
    Data:
        Version: 3 (0x2)
        Serial Number: 1 (0x1)
        Signature Algorithm: sha256WithRSAEncryption
        Issuer: O=Example CA
        Validity
            Not Before: Nov 20 21:15:21 2019 GMT
            Not After : Nov 20 21:15:21 2037 GMT
        Subject: O=Example CA
        Subject Public Key Info:
            Public Key Algorithm: rsaEncryption
                Public-Key: (2048 bit)
                Modulus:
                    00:a9:ce:7d:cf:0e:53:8f:1a:96:b4:d5:21:4a:e6:
                    8f:f2:f8:24:9a:5a:18:74:50:4d:01:31:78:c6:bd:
                    ba:a8:a7:62:1c:29:f2:52:be:4d:a9:db:f2:a4:c8:
                    cc:3c:01:bd:91:81:9d:7d:ae:e4:b4:01:1b:b5:9d:
                    6b:80:1e:f3:ae:e3:ba:82:fc:56:3d:87:b7:92:63:
                    ee:3d:6c:a9:1c:b3:75:2a:b5:f0:44:96:81:93:9c:
                    80:5d:c1:c4:23:ca:ee:03:d7:27:05:1e:57:3d:93:
                    3f:89:88:25:df:27:35:f3:54:10:55:5c:e6:54:2b:
                    23:06:cf:b1:44:db:38:ec:75:1b:bb:85:44:3d:db:
                    cf:ad:8b:23:13:c3:b9:5b:a8:ab:06:ef:0e:4c:74:
                    d2:22:c8:25:01:30:bd:3d:63:a7:b2:b0:c9:25:b3:
                    26:70:ff:63:8f:40:2a:cd:27:73:d8:d4:0e:64:95:
                    fe:75:ff:00:d4:78:fe:b0:86:0d:bf:0f:4c:eb:b5:
                    97:90:cb:77:8c:0f:53:ca:00:dc:57:82:e8:d6:08:
                    8a:06:bc:78:ff:26:ef:d1:f8:b2:7c:b1:4b:28:c5:
                    8c:30:14:a3:bc:a8:3c:8c:07:e5:73:de:be:2d:fc:
                    55:d8:fd:02:64:87:b0:b5:91:0b:d1:0c:31:e5:b7:
                    e4:f7
                Exponent: 65537 (0x10001)
        X509v3 extensions:
            X509v3 Basic Constraints: critical
                CA:TRUE
            X509v3 Key Usage: critical
                Certificate Sign, CRL Sign
            X509v3 Subject Key Identifier: 
                8D:05:22:3A:EF:F4:DE:43:C8:EF:6C:7C:58:8A:15:B9:83:2D:50:D4
            X509v3 Authority Key Identifier: 
                8D:05:22:3A:EF:F4:DE:43:C8:EF:6C:7C:58:8A:15:B9:83:2D:50:D4
    Signature Algorithm: sha256WithRSAEncryption
    Signature Value:
        83:d2:fd:2d:e8:50:c1:34:8d:a9:2e:eb:ba:13:71:2c:f3:c2:
        9b:0f:59:84:46:53:7b:6b:b3:0b:20:50:55:29:62:45:ec:79:
        b9:66:6e:3b:13:a1:e3:54:38:c3:f0:41:13:1e:61:cc:53:0e:
        7b:9b:71:30:f4:33:e5:c2:64:88:bc:ab:9d:26:d6:65:f5:09:
        6f:3f:5e:42:6d:8b:50:60:f2:ec:75:48:9d:d2:26:e8:d3:f2:
        0c:d1:e2:6b:ab:9d:f3:2c:96:ee:34:4a:00:f0:87:9c:69:82:
        96:a8:ca:ac:88:87:52:ac:2d:3a:5d:6a:f2:77:43:38:53:88:
        21:c6:c8:62:d6:b6:c7:91:30:29:69:34:3d:75:f2:b4:47:92:
        c7:8f:ef:65:54:e0:ce:5c:3f:8f:0b:04:33:1a:1d:22:14:73:
        6c:e7:0f:a5:57:46:8a:64:ce:b4:05:47:b9:34:8d:fb:77:2f:
        cb:71:b2:bb:ea:13:ce:66:74:11:d7:d3:b8:fb:14:64:2e:a4:
        5c:d2:11:67:74:d5:a2:9a:b6:85:80:54:be:08:b6:13:b2:33:
        94:a0:ae:52:c8:c2:f6:a7:50:3f:8d:37:7b:f3:f8:32:28:be:
        c3:b0:4a:5f:7f:30:00:13:78:db:1e:6f:a6:45:56:d6:ed:6c:
        a4:64:d7:30
-----BEGIN CERTIFICATE-----
MIIDCDCCAfCgAwIBAgIBATANBgkqhkiG9w0BAQsFADAVMRMwEQYDVQQKDApFeGFt
cGxlIENBMB4XDTE5MTEyMDIxMTUyMVoXDTM3MTEyMDIxMTUyMVowFTETMBEGA1UE
CgwKRXhhbXBsZSBDQTCCASIwDQYJKoZIhvcNAQEBBQADggEPADCCAQoCggEBAKnO
fc8OU48alrTVIUrmj/L4JJpaGHRQTQExeMa9uqinYhwp8lK+Tanb8qTIzDwBvZGB
nX2u5LQBG7Wda4Ae867juoL8Vj2Ht5Jj7j1sqRyzdSq18ESWgZOcgF3BxCPK7gPX
JwUeVz2TP4mIJd8nNfNUEFVc5lQrIwbPsUTbOOx1G7uFRD3bz62LIxPDuVuoqwbv
Dkx00iLIJQEwvT1jp7KwySWzJnD/Y49AKs0nc9jUDmSV/nX/ANR4/rCGDb8PTOu1
l5DLd4wPU8oA3FeC6NYIiga8eP8m79H4snyxSyjFjDAUo7yoPIwH5XPevi38Vdj9
AmSHsLWRC9EMMeW35PcCAwEAAaNjMGEwDwYDVR0TAQH/BAUwAwEB/zAOBgNVHQ8B
Af8EBAMCAQYwHQYDVR0OBBYEFI0FIjrv9N5DyO9sfFiKFbmDLVDUMB8GA1UdIwQY
MBaAFI0FIjrv9N5DyO9sfFiKFbmDLVDUMA0GCSqGSIb3DQEBCwUAA4IBAQCD0v0t
6FDBNI2pLuu6E3Es88KbD1mERlN7a7MLIFBVKWJF7Hm5Zm47E6HjVDjD8EETHmHM
Uw57m3Ew9DPlwmSIvKudJtZl9QlvP15CbYtQYPLsdUid0ibo0/IM0eJrq53zLJbu
NEoA8IecaYKWqMqsiIdSrC06XWryd0M4U4ghxshi1rbHkTApaTQ9dfK0R5LHj+9l
VODOXD+PCwQzGh0iFHNs5w+lV0aKZM60BUe5NI37dy/LcbK76hPOZnQR19O4+xRk
LqRc0hFndNWimraFgFS+CLYTsjOUoK5SyML2p1A/jTd78/gyKL7DsEpffzAAE3jb
Hm+mRVbW7WykZNcw
-----END CERTIFICATE-----
