Certificate:
    Data:
        Version: 3 (0x2)
        Serial Number: 1 (0x1)
        Signature Algorithm: sha256WithRSAEncryption
        Issuer: O=Example CA
        Validity
            Not Before: Nov 20 21:15:21 2019 GMT
            Not After : Nov 20 21:15:21 2037 GMT
        Subject: O=Example CA
        Subject Public Key Info:
            Public Key Algorithm: rsaEncryption
                Public-Key: (2048 bit)
                Modulus:
                    00:a9:ce:7d:cf:0e:53:8f:1a:96:b4:d5:21:4a:e6:
                    8f:f2:f8:24:9a:5a:18:74:50:4d:01:31:78:c6:bd:
                    ba:a8:a7:62:1c:29:f2:52:be:4d:a9:db:f2:a4:c8:
                    cc:3c:01:bd:91:81:9d:7d:ae:e4:b4:01:1b:b5:9d:
                    6b:80:1e:f3:ae:e3:ba:82:fc:56:3d:87:b7:92:63:
                    ee:3d:6c:a9:1c:b3:75:2a:b5:f0:44:96:81:93:9c:
                    80:5d:c1:c4:23:ca:ee:03:d7:27:05:1e:57:3d:93:
                    3f:89:88:25:df:27:35:f3:54:10:55:5c:e6:54:2b:
                    23:06:cf:b1:44:db:38:ec:75:1b:bb:85:44:3d:db:
                    cf:ad:8b:23:13:c3:b9:5b:a8:ab:06:ef:0e:4c:74:
                    d2:22:c8:25:01:30:bd:3d:63:a7:b2:b0:c9:25:b3:
                    26:70:ff:63:8f:40:2a:cd:27:73:d8:d4:0e:64:95:
                    fe:75:ff:00:d4:78:fe:b0:86:0d:bf:0f:4c:eb:b5:
                    97:90:cb:77:8c:0f:53:ca:00:dc:57:82:e8:d6:08:
                    8a:06:bc:78:ff:26:ef:d1:f8:b2:7c:b1:4b:28:c5:
                    8c:30:14:a3:bc:a8:3c:8c:07:e5:73:de:be:2d:fc:
                    55:d8:fd:02:64:87:b0:b5:91:0b:d1:0c:31:e5:b7:
                    e4:f7
                Exponent: 65537 (0x10001)
        X509v3 extensions:
            X509v3 Basic Constraints: critical
                CA:TRUE
            X509v3 Key Usage: critical
                Certificate Sign, CRL Sign
            X509v3 Subject Key Identifier: 
                8D:05:22:3A:EF:F4:DE:43:C8:EF:6C:7C:58:8A:15:B9:83:2D:50:D4
    Signature Algorithm: sha256WithRSAEncryption
    Signature Value:
        74:89:b9:e1:01:7b:0d:ce:80:06:19:82:25:bb:f3:3a:05:1a:
        86:b2:9d:5b:1f:26:29:f1:38:b7:bc:25:ad:80:98:75:22:05:
        1a:95:77:b5:43:f6:59:fd:66:37:b7:3c:4b:e0:8a:ae:5f:2a:
        d4:fd:51:7d:11:00:42:b9:dd:17:4d:9a:cb:cd:03:df:0f:d8:
        65:b3:4c:82:4f:9e:05:74:a7:e1:65:49:ef:a0:ff:58:d7:9b:
        2b:17:51:c0:ad:c3:46:26:4f:e8:bb:78:26:77:84:4e:ed:0a:
        b0:66:c0:06:96:bb:b1:ba:8b:c8:de:65:6f:50:6f:88:9b:d9:
        ca:99:b6:72:80:7a:5b:d0:9b:f4:30:57:69:28:38:e2:9c:ef:
        6a:8b:c7:fa:2f:29:2f:9f:f5:7d:b9:b1:7f:aa:96:e1:a6:f8:
        98:64:e6:5e:6f:99:25:4f:2e:85:a1:50:5c:3b:1d:d3:1c:39:
        30:7a:e2:70:30:88:12:54:ce:07:8c:46:e5:03:62:ab:ed:d6:
        30:7a:ba:63:bb:36:c8:bb:83:80:73:50:9b:da:ea:4a:d5:00:
        87:af:4d:24:f7:cf:c8:ee:ac:11:4e:c4:94:86:7c:ee:89:76:
        fd:ab:71:85:54:ce:70:db:5d:13:b8:54:04:2f:3a:6b:87:97:
        5b:93:52:c8
-----BEGIN CERTIFICATE-----
MIIC5zCCAc+gAwIBAgIBATANBgkqhkiG9w0BAQsFADAVMRMwEQYDVQQKDApFeGFt
cGxlIENBMB4XDTE5MTEyMDIxMTUyMVoXDTM3MTEyMDIxMTUyMVowFTETMBEGA1UE
CgwKRXhhbXBsZSBDQTCCASIwDQYJKoZIhvcNAQEBBQADggEPADCCAQoCggEBAKnO
fc8OU48alrTVIUrmj/L4JJpaGHRQTQExeMa9uqinYhwp8lK+Tanb8qTIzDwBvZGB
nX2u5LQBG7Wda4Ae867juoL8Vj2Ht5Jj7j1sqRyzdSq18ESWgZOcgF3BxCPK7gPX
JwUeVz2TP4mIJd8nNfNUEFVc5lQrIwbPsUTbOOx1G7uFRD3bz62LIxPDuVuoqwbv
Dkx00iLIJQEwvT1jp7KwySWzJnD/Y49AKs0nc9jUDmSV/nX/ANR4/rCGDb8PTOu1
l5DLd4wPU8oA3FeC6NYIiga8eP8m79H4snyxSyjFjDAUo7yoPIwH5XPevi38Vdj9
AmSHsLWRC9EMMeW35PcCAwEAAaNCMEAwDwYDVR0TAQH/BAUwAwEB/zAOBgNVHQ8B
Af8EBAMCAQYwHQYDVR0OBBYEFI0FIjrv9N5DyO9sfFiKFbmDLVDUMA0GCSqGSIb3
DQEBCwUAA4IBAQB0ibnhAXsNzoAGGYIlu/M6BRqGsp1bHyYp8Ti3vCWtgJh1IgUa
lXe1Q/ZZ/WY3tzxL4IquXyrU/VF9EQBCud0XTZrLzQPfD9hls0yCT54FdKfhZUnv
oP9Y15srF1HArcNGJk/ou3gmd4RO7QqwZsAGlruxuovI3mVvUG+Im9nKmbZygHpb
0Jv0MFdpKDjinO9qi8f6Lykvn/V9ubF/qpbhpviYZOZeb5klTy6FoVBcOx3THDkw
euJwMIgSVM4HjEblA2Kr7dYwerpjuzbIu4OAc1Cb2upK1QCHr00k98/I7qwRTsSU
hnzuiXb9q3GFVM5w210TuFQELzprh5dbk1LI
-----END CERTIFICATE-----
