Certificate:
    Data:
        Version: 3 (0x2)
        Serial Number: 2 (0x2)
        Signature Algorithm: sha256WithRSAEncryption
        Issuer: O=Example CA
        Validity
            Not Before: Nov 20 21:15:21 2024 GMT
            Not After : Nov 20 21:15:21 2037 GMT
        Subject: CN=localhost
        Subject Public Key Info:
            Public Key Algorithm: rsaEncryption
                Public-Key: (2048 bit)
                Modulus:
                    00:c6:33:69:67:a5:42:27:7c:dc:62:b3:5f:b3:7c:
                    c0:05:7a:b1:9a:33:b0:62:b0:76:8d:7a:f2:0a:82:
                    97:2e:49:33:70:11:12:b7:59:9f:bf:21:f6:e3:b0:
                    51:58:e6:b9:3e:fc:5e:05:46:c5:cd:dd:46:9b:45:
                    77:73:d0:c8:d5:70:b7:9c:3f:2d:a2:31:a0:9a:53:
                    e3:24:21:9b:80:92:f9:39:20:cf:9a:73:e5:00:3e:
                    65:7a:9a:a8:37:e0:96:38:e0:1a:3a:fe:89:9b:b2:
                    81:34:10:16:4f:ff:91:7c:4d:bd:e3:5a:3a:b0:12:
                    77:0b:53:56:ad:75:89:49:25:27:08:b9:3c:ac:48:
                    07:bf:15:51:8c:4e:25:21:35:51:b5:cf:8e:c8:42:
                    e9:9b:46:8a:db:f3:3b:d8:13:ec:17:98:ec:f8:ce:
                    89:80:14:2d:ad:a4:98:fd:be:64:c8:9e:54:eb:6a:
                    fc:ee:67:c7:9a:af:a3:e6:17:02:f1:26:e1:d9:29:
                    6f:25:87:f2:1a:2e:f4:56:82:a6:bf:bc:3a:93:5b:
                    30:e1:07:e2:47:62:e9:39:c1:d9:16:98:55:f1:3e:
                    92:be:40:49:2f:2e:0b:ab:d1:72:c3:9c:ae:dd:ac:
                    07:d6:92:2b:bb:34:b6:7a:e0:c8:76:af:81:90:ab:
                    d4:e1
                Exponent: 65537 (0x10001)
        X509v3 extensions:
            X509v3 Key Usage: critical
                Digital Signature, Key Encipherment, Key Agreement
            X509v3 Extended Key Usage: 
                TLS Web Server Authentication
            X509v3 Subject Key Identifier: 
                88:AC:B1:BD:03:14:22:F9:23:E2:CB:61:40:73:71:73:E6:9F:FF:C4
            X509v3 Authority Key Identifier: 
                8D:05:22:3A:EF:F4:DE:43:C8:EF:6C:7C:58:8A:15:B9:83:2D:50:D4
    Signature Algorithm: sha256WithRSAEncryption
    Signature Value:
        36:56:de:9b:5e:2e:e7:05:e3:1f:a8:2b:f9:9d:c3:f8:d0:eb:
        4b:7a:49:a5:fe:34:ef:a8:f1:5d:3d:eb:6d:db:29:a3:f0:e9:
        dd:58:e4:ac:a8:58:1e:df:98:e4:12:86:d0:94:03:44:27:f6:
        e3:80:97:41:6b:e0:03:95:22:3e:43:c3:35:83:e0:e7:79:82:
        c0:89:c5:4d:d0:a7:21:ac:f8:ed:d7:b5:a1:25:41:fc:68:7e:
        d3:43:95:69:60:91:58:6b:fb:2e:61:9f:a0:a1:b9:0f:55:42:
        55:e3:51:42:2d:6d:da:7a:dc:e0:e1:d7:f9:8a:3d:c9:23:dc:
        08:ed:54:19:f0:89:5b:3d:1e:28:3d:d6:a9:65:1d:7f:e7:61:
        1e:62:57:27:9d:07:65:94:b6:be:67:08:71:63:18:73:c2:86:
        cb:f1:7f:4f:b0:cc:74:40:3c:71:78:60:f4:71:8d:68:2c:b4:
        ba:93:ec:40:c3:02:44:9c:0e:74:4a:50:a0:53:ec:04:52:1e:
        e1:78:3b:a5:c0:c8:84:b9:2c:90:ff:33:d3:88:3d:4f:68:0b:
        f7:0f:d9:ee:cb:f9:c0:16:42:2c:8f:6b:14:e8:fe:18:e2:40:
        55:28:6e:f5:b0:09:64:51:ad:22:da:fa:af:7f:34:08:7d:c1:
        1b:8f:78:0f
-----BEGIN CERTIFICATE-----
MIIDCzCCAfOgAwIBAgIBAjANBgkqhkiG9w0BAQsFADAVMRMwEQYDVQQKDApFeGFt
cGxlIENBMB4XDTI0MTEyMDIxMTUyMVoXDTM3MTEyMDIxMTUyMVowFDESMBAGA1UE
AwwJbG9jYWxob3N0MIIBIjANBgkqhkiG9w0BAQEFAAOCAQ8AMIIBCgKCAQEAxjNp
Z6VCJ3zcYrNfs3zABXqxmjOwYrB2jXryCoKXLkkzcBESt1mfvyH247BRWOa5Pvxe
BUbFzd1Gm0V3c9DI1XC3nD8tojGgmlPjJCGbgJL5OSDPmnPlAD5lepqoN+CWOOAa
Ov6Jm7KBNBAWT/+RfE2941o6sBJ3C1NWrXWJSSUnCLk8rEgHvxVRjE4lITVRtc+O
yELpm0aK2/M72BPsF5js+M6JgBQtraSY/b5kyJ5U62r87mfHmq+j5hcC8Sbh2Slv
JYfyGi70VoKmv7w6k1sw4QfiR2LpOcHZFphV8T6SvkBJLy4Lq9Fyw5yu3awH1pIr
uzS2euDIdq+BkKvU4QIDAQABo2cwZTAOBgNVHQ8BAf8EBAMCA6gwEwYDVR0lBAww
CgYIKwYBBQUHAwEwHQYDVR0OBBYEFIissb0DFCL5I+LLYUBzcXPmn//EMB8GA1Ud
IwQYMBaAFI0FIjrv9N5DyO9sfFiKFbmDLVDUMA0GCSqGSIb3DQEBCwUAA4IBAQA2
Vt6bXi7nBeMfqCv5ncP40OtLekml/jTvqPFdPett2ymj8OndWOSsqFge35jkEobQ
lANEJ/bjgJdBa+ADlSI+Q8M1g+DneYLAicVN0KchrPjt17WhJUH8aH7TQ5VpYJFY
a/suYZ+gobkPVUJV41FCLW3aetzg4df5ij3JI9wI7VQZ8IlbPR4oPdapZR1/52Ee
YlcnnQdllLa+ZwhxYxhzwobL8X9PsMx0QDxxeGD0cY1oLLS6k+xAwwJEnA50SlCg
U+wEUh7heDulwMiEuSyQ/zPTiD1PaAv3D9nuy/nAFkIsj2sU6P4Y4kBVKG71sAlk
Ua0i2vqvfzQIfcEbj3gP
-----END CERTIFICATE-----
